; Function Attrs: mustprogress noreturn uwtable
define noundef i64 @_Z20logged_rv32i_ukadd32P11processor_t6insn_tm(ptr nocapture noundef readonly %0, i64 %1, i64 noundef %2) local_unnamed_addr #3 personality ptr @__gxx_personality_v0 {
  %4 = getelementptr inbounds i8, ptr %0, i64 2024
  %5 = load ptr, ptr %4, align 8
  %6 = tail call noundef zeroext i1 @_ZN13sstatus_csr_t7enabledEm(ptr noundef nonnull align 8 dereferenceable(104) %5, i64 noundef 1536)
  %7 = tail call ptr @__cxa_allocate_exception(i64 32) #14
  %8 = getelementptr inbounds i8, ptr %7, i64 8
  store i64 2, ptr %8, align 8
  %9 = getelementptr inbounds i8, ptr %7, i64 16
  store i8 0, ptr %9, align 8
  %10 = getelementptr inbounds i8, ptr %7, i64 24
  store i64 %1, ptr %10, align 8
  store ptr getelementptr inbounds ({ [12 x ptr] }, ptr @_ZTV24trap_illegal_instruction, i64 0, i32 0, i64 2), ptr %7, align 8
  tail call void @__cxa_throw(ptr nonnull %7, ptr nonnull @_ZTI24trap_illegal_instruction, ptr nonnull @_ZN24trap_illegal_instructionD2Ev) #15
  unreachable
}